; Function Attrs: mustprogress uwtable
define hidden void @_ZN4ncnn22ConvolutionDepthWise1DC2Ev(ptr noundef nonnull align 8 dereferenceable(480) %0) unnamed_addr #1 align 2 personality ptr @__gxx_personality_v0 {
  tail call void @_ZN4ncnn5LayerC2Ev(ptr noundef nonnull align 8 dereferenceable(208) %0)
  store ptr getelementptr inbounds nuw inrange(-16, 80) (i8, ptr @_ZTVN4ncnn22ConvolutionDepthWise1DE, i64 16), ptr %0, align 8, !tbaa !4
  %2 = getelementptr inbounds nuw i8, ptr %0, i64 256
  %3 = getelementptr inbounds nuw i8, ptr %0, i64 288
  %4 = getelementptr inbounds nuw i8, ptr %0, i64 320
  store i64 0, ptr %4, align 8, !tbaa !17
  %5 = getelementptr inbounds nuw i8, ptr %0, i64 336
  %6 = getelementptr inbounds nuw i8, ptr %0, i64 368
  %7 = getelementptr inbounds nuw i8, ptr %0, i64 400
  %8 = getelementptr inbounds nuw i8, ptr %0, i64 440
  %9 = getelementptr inbounds nuw i8, ptr %0, i64 472
  store i64 0, ptr %9, align 8, !tbaa !17
  %10 = getelementptr inbounds nuw i8, ptr %0, i64 8
  tail call void @llvm.memset.p0.i64(ptr noundef nonnull align 8 dereferenceable(28) %2, i8 0, i64 28, i1 false)
  tail call void @llvm.memset.p0.i64(ptr noundef nonnull align 8 dereferenceable(28) %3, i8 0, i64 28, i1 false)
  tail call void @llvm.memset.p0.i64(ptr noundef nonnull align 8 dereferenceable(28) %5, i8 0, i64 28, i1 false)
  tail call void @llvm.memset.p0.i64(ptr noundef nonnull align 8 dereferenceable(28) %6, i8 0, i64 28, i1 false)
  tail call void @llvm.memset.p0.i64(ptr noundef nonnull align 8 dereferenceable(36) %7, i8 0, i64 36, i1 false)
  tail call void @llvm.memset.p0.i64(ptr noundef nonnull align 8 dereferenceable(28) %8, i8 0, i64 28, i1 false)
  store i8 1, ptr %10, align 8, !tbaa !53
  %11 = getelementptr inbounds nuw i8, ptr %0, i64 9
  store i8 0, ptr %11, align 1, !tbaa !57
  ret void
}